; Function Attrs: mustprogress nounwind uwtable
define internal fastcc void @_ZN5clang19RecursiveASTVisitorIN12_GLOBAL__N_111TypeIndexerEE31TraverseDependentSizedArrayTypeEPNS_23DependentSizedArrayTypeE(ptr noundef nonnull readonly align 1 captures(none) dereferenceable(1) %0, ptr noundef readonly captures(none) %1) unnamed_addr #0 align 2 {
  %3 = getelementptr inbounds nuw i8, ptr %1, i64 32
  %.sroa.0.0.copyload.i = load i64, ptr %3, align 16
  tail call fastcc void @_ZN5clang19RecursiveASTVisitorIN12_GLOBAL__N_111TypeIndexerEE12TraverseTypeENS_8QualTypeE(ptr noundef nonnull align 1 dereferenceable(1) %0, i64 %.sroa.0.0.copyload.i)
  %4 = getelementptr inbounds nuw i8, ptr %1, i64 40
  %5 = load ptr, ptr %4, align 8
  %.not = icmp eq ptr %5, null
  br i1 %.not, label %12, label %6

6:                                                ; preds = %2
  %7 = load ptr, ptr %0, align 8
  %8 = getelementptr inbounds nuw i8, ptr %0, i64 8
  %9 = load ptr, ptr %8, align 8
  %10 = getelementptr inbounds nuw i8, ptr %0, i64 16
  %11 = load ptr, ptr %10, align 8
  tail call void @_ZN5clang5index15IndexingContext9indexBodyEPKNS_4StmtEPKNS_9NamedDeclEPKNS_11DeclContextE(ptr noundef nonnull align 8 dereferenceable(64) %7, ptr noundef nonnull %5, ptr noundef %9, ptr noundef %11) #13
  br label %12

12:                                               ; preds = %6, %2
  ret void
}